; Function Attrs: nounwind sspstrong uwtable
define internal i64 @ossl_pkcs7si_get_issuer(i64 noundef %0) #0 {
  %2 = tail call ptr @rb_check_typeddata(i64 noundef %0, ptr noundef nonnull @ossl_pkcs7_signer_info_type) #5
  %.not = icmp eq ptr %2, null
  br i1 %.not, label %3, label %5

3:                                                ; preds = %1
  %4 = load i64, ptr @rb_eRuntimeError, align 8, !tbaa !6
  tail call void (i64, ptr, ...) @ossl_raise(i64 noundef %4, ptr noundef nonnull @.str.73) #6
  unreachable

5:                                                ; preds = %1
  %6 = getelementptr inbounds nuw i8, ptr %2, i64 8
  %7 = load ptr, ptr %6, align 8, !tbaa !69
  %8 = load ptr, ptr %7, align 8, !tbaa !70
  %9 = tail call i64 @ossl_x509name_new(ptr noundef %8) #5
  ret i64 %9
}